; Function Attrs: nounwind uwtable
define hidden noundef zeroext i1 @je_arena_muzzy_decay_ms_default_set(i64 noundef %0) local_unnamed_addr #0 {
  %2 = tail call zeroext i1 @je_decay_ms_valid(i64 noundef %0) #16
  br i1 %2, label %atomic_store_zd.exit, label %3

atomic_store_zd.exit:                             ; preds = %1
  store atomic i64 %0, ptr @muzzy_decay_ms_default.0 monotonic, align 8
  br label %3

3:                                                ; preds = %1, %atomic_store_zd.exit
  %.0 = xor i1 %2, true
  ret i1 %.0
}